target datalayout = "e-m:e-p270:32:32-p271:32:32-p272:64:64-i64:64-i128:128-f80:128-n8:16:32:64-S128"
target triple = "x86_64-pc-linux-gnu"

%class.QByteArray = type { %struct.QArrayDataPointer.0 }
%struct.QArrayDataPointer.0 = type { ptr, ptr, i64 }

; Function Attrs: mustprogress null_pointer_is_valid sspstrong uwtable
define void @_Z24gchar_free_to_qbytearrayPc(ptr dead_on_unwind noalias writable sret(%class.QByteArray) align 8 %0, ptr noundef %1) #0 personality ptr @__gxx_personality_v0 {
  %3 = alloca ptr, align 8
  %4 = alloca ptr, align 8
  %5 = alloca i1, align 1
  %6 = alloca ptr, align 8
  %7 = alloca i32, align 4
  store ptr %0, ptr %3, align 8
  store ptr %1, ptr %4, align 8
  store i1 false, ptr %5, align 1
  %8 = load ptr, ptr %4, align 8
  call void @_ZN10QByteArrayC1EPKcx(ptr noundef align 8 dereferenceable_or_null(24) %0, ptr noundef %8, i64 noundef -1)
  %9 = load ptr, ptr %4, align 8
  invoke void @g_free(ptr noundef %9)
          to label %10 unwind label %12

10:                                               ; preds = %2
  store i1 true, ptr %5, align 1
  %11 = load i1, ptr %5, align 1
  br i1 %11, label %17, label %16

12:                                               ; preds = %2
  %13 = landingpad { ptr, i32 }
          cleanup
  %14 = extractvalue { ptr, i32 } %13, 0
  store ptr %14, ptr %6, align 8
  %15 = extractvalue { ptr, i32 } %13, 1
  store i32 %15, ptr %7, align 4
  call void @_ZN10QByteArrayD2Ev(ptr noundef align 8 dereferenceable_or_null(24) %0) #22
  br label %18

16:                                               ; preds = %10
  call void @_ZN10QByteArrayD2Ev(ptr noundef align 8 dereferenceable_or_null(24) %0) #22
  br label %17

17:                                               ; preds = %16, %10
  ret void

18:                                               ; preds = %12
  %19 = load ptr, ptr %6, align 8
  %20 = load i32, ptr %7, align 4
  %21 = insertvalue { ptr, i32 } poison, ptr %19, 0
  %22 = insertvalue { ptr, i32 } %21, i32 %20, 1
  resume { ptr, i32 } %22
}