; Function Attrs: mustprogress null_pointer_is_valid sspstrong uwtable
define void @_Z24gchar_free_to_qbytearrayPc(ptr dead_on_unwind noalias writable sret(%class.QByteArray) align 8 %0, ptr noundef %1) local_unnamed_addr #0 personality ptr @__gxx_personality_v0 {
  tail call void @_ZN10QByteArrayC1EPKcx(ptr noundef align 8 dereferenceable_or_null(24) %0, ptr noundef %1, i64 noundef -1)
  invoke void @g_free(ptr noundef %1)
          to label %5 unwind label %3

3:                                                ; preds = %2
  %4 = landingpad { ptr, i32 }
          cleanup
  tail call void @_ZN10QByteArrayD2Ev(ptr noundef align 8 dereferenceable_or_null(24) %0) #21
  resume { ptr, i32 } %4

5:                                                ; preds = %2
  ret void
}